Certificate:
    Data:
        Version: 3 (0x2)
        Serial Number: 1 (0x1)
    Signature Algorithm: sha256WithRSAEncryption
        Issuer: C=US, ST=Washington, L=Seattle, O=Example.com, OU=Licensing, CN=example.com/emailAddress=licensing@example.com
        Validity
            Not Before: May 18 20:26:59 2015 GMT
            Not After : May 15 20:26:59 2025 GMT
        Subject: C=US, ST=Washington, O=Example.com, OU=Production, CN=localhost/emailAddress=production@example.com
        Subject Public Key Info:
            Public Key Algorithm: rsaEncryption
                Public-Key: (2048 bit)
                Modulus:
                    00:d8:01:7f:58:9f:6a:5c:e4:c7:40:5d:7d:dc:91:
                    2a:ac:99:c9:5e:eb:29:c0:50:f3:e5:87:5f:41:1f:
                    87:5c:34:f3:8c:f9:d3:70:a1:a9:1c:7b:27:35:f0:
                    18:4f:90:60:c8:cb:e9:46:0f:af:d7:89:7f:0b:3e:
                    60:89:52:5b:56:4b:fb:1d:84:5d:8f:9b:39:bc:b2:
                    79:a1:bf:9c:52:82:28:7f:5d:8f:b1:c4:9e:be:8e:
                    5c:77:d4:29:f5:e0:fb:d5:c0:bb:7c:4b:39:25:12:
                    ed:87:a2:8a:3f:a1:35:4f:84:68:fc:e7:19:4a:e9:
                    08:03:de:a4:48:b7:35:47:46:07:23:9f:2f:74:c0:
                    ce:81:c3:37:f8:35:87:91:08:76:4d:01:db:25:b8:
                    fb:c8:99:a4:b7:4a:0b:ab:47:bd:1d:c1:17:40:6d:
                    d0:03:3c:af:fe:e7:f3:ee:52:0f:e9:b9:86:ea:ca:
                    62:67:ab:bd:4f:57:de:f0:98:c5:45:5f:9c:ab:f5:
                    85:29:18:b0:f4:0e:a8:6d:40:5e:13:3c:ce:c4:72:
                    1f:a9:3e:c8:bc:22:d5:7d:64:10:69:e6:e9:06:c2:
                    67:99:6f:6c:7e:77:c7:d6:51:97:08:c8:fa:ee:e4:
                    52:19:63:21:0b:f4:72:85:fd:18:23:b8:d8:70:83:
                    db:f9
                Exponent: 65537 (0x10001)
        X509v3 extensions:
            X509v3 Basic Constraints: 
                CA:FALSE
            X509v3 Subject Key Identifier: 
                FB:5A:B3:E6:A7:A9:42:04:BC:2A:AD:11:8C:B6:5B:A9:DC:DB:29:0F
            X509v3 Authority Key Identifier: 
                keyid:14:95:8E:87:F0:AC:B7:A8:40:D9:26:8A:19:E3:50:1C:D3:6F:C2:85

            X509v3 Key Usage: 
                Digital Signature, Non Repudiation, Key Encipherment
    Signature Algorithm: sha256WithRSAEncryption
         36:5d:99:ed:23:5c:f3:a1:b1:29:69:21:06:02:f3:ec:13:bc:
         9e:a4:e2:29:65:69:77:f7:41:40:71:c2:27:1f:67:c3:46:79:
         e6:9e:53:5a:b2:df:c6:90:c3:a3:94:28:b0:93:74:7a:cf:7b:
         c6:4e:f9:4b:c7:3d:4f:c0:c5:85:72:7a:a2:a8:83:b2:5d:3b:
         07:13:a4:36:3e:08:9b:9d:89:57:38:fe:d1:f6:3f:26:6c:0e:
         6a:46:9d:ac:3f:52:23:14:47:ef:b3:04:26:e2:8a:44:12:3b:
         70:c0:73:e7:b8:b8:7f:52:3d:10:c3:57:83:88:32:56:3c:0a:
         a4:43:a2:09:c5:fa:c6:23:f1:6d:98:86:ce:df:21:1e:c1:7d:
         2f:2f:ff:8b:bc:3d:24:ec:f5:23:ca:8d:18:64:0f:c3:a4:75:
         d3:73:1a:77:20:2f:18:d4:57:54:f6:73:1a:a0:43:d7:cd:d9:
         77:2c:bc:fb:2d:a7:46:bb:ea:7d:00:0c:40:ed:9f:5c:97:c5:
         a5:55:32:5a:cf:a2:ff:d0:b0:76:8a:1b:61:73:f5:87:2c:cc:
         2a:04:be:08:10:27:f7:00:d3:93:d3:ac:f6:4f:5d:93:d4:0b:
         48:4a:0c:e5:55:19:58:e7:af:18:b6:f2:b5:04:0d:58:a4:4c:
         b8:f4:54:94
-----BEGIN CERTIFICATE-----
MIID+TCCAuGgAwIBAgIBATANBgkqhkiG9w0BAQsFADCBmjELMAkGA1UEBhMCVVMx
EzARBgNVBAgMCldhc2hpbmd0b24xEDAOBgNVBAcMB1NlYXR0bGUxFDASBgNVBAoM
C0V4YW1wbGUuY29tMRIwEAYDVQQLDAlMaWNlbnNpbmcxFDASBgNVBAMMC2V4YW1w
bGUuY29tMSQwIgYJKoZIhvcNAQkBFhVsaWNlbnNpbmdAZXhhbXBsZS5jb20wHhcN
MTUwNTE4MjAyNjU5WhcNMjUwNTE1MjAyNjU5WjCBiDELMAkGA1UEBhMCVVMxEzAR
BgNVBAgMCldhc2hpbmd0b24xFDASBgNVBAoMC0V4YW1wbGUuY29tMRMwEQYDVQQL
DApQcm9kdWN0aW9uMRIwEAYDVQQDDAlsb2NhbGhvc3QxJTAjBgkqhkiG9w0BCQEW
FnByb2R1Y3Rpb25AZXhhbXBsZS5jb20wggEiMA0GCSqGSIb3DQEBAQUAA4IBDwAw
ggEKAoIBAQDYAX9Yn2pc5MdAXX3ckSqsmcle6ynAUPPlh19BH4dcNPOM+dNwoakc
eyc18BhPkGDIy+lGD6/XiX8LPmCJUltWS/sdhF2Pmzm8snmhv5xSgih/XY+xxJ6+
jlx31Cn14PvVwLt8SzklEu2Hooo/oTVPhGj85xlK6QgD3qRItzVHRgcjny90wM6B
wzf4NYeRCHZNAdsluPvImaS3SgurR70dwRdAbdADPK/+5/PuUg/puYbqymJnq71P
V97wmMVFX5yr9YUpGLD0DqhtQF4TPM7Ech+pPsi8ItV9ZBBp5ukGwmeZb2x+d8fW
UZcIyPru5FIZYyEL9HKF/RgjuNhwg9v5AgMBAAGjWjBYMAkGA1UdEwQCMAAwHQYD
VR0OBBYEFPtas+anqUIEvCqtEYy2W6nc2ykPMB8GA1UdIwQYMBaAFBSVjofwrLeo
QNkmihnjUBzTb8KFMAsGA1UdDwQEAwIF4DANBgkqhkiG9w0BAQsFAAOCAQEANl2Z
7SNc86GxKWkhBgLz7BO8nqTiKWVpd/dBQHHCJx9nw0Z55p5TWrLfxpDDo5QosJN0
es97xk75S8c9T8DFhXJ6oqiDsl07BxOkNj4Im52JVzj+0fY/JmwOakadrD9SIxRH
77MEJuKKRBI7cMBz57i4f1I9EMNXg4gyVjwKpEOiCcX6xiPxbZiGzt8hHsF9Ly//
i7w9JOz1I8qNGGQPw6R103MadyAvGNRXVPZzGqBD183Zdyy8+y2nRrvqfQAMQO2f
XJfFpVUyWs+i/9CwdoobYXP1hyzMKgS+CBAn9wDTk9Os9k9dk9QLSEoM5VUZWOev
GLbytQQNWKRMuPRUlA==
-----END CERTIFICATE-----
